; Function Attrs: mustprogress uwtable
define void @_ZN6icu_7714ResourceBundle13getNextStringER10UErrorCode(ptr dead_on_unwind noalias writable sret(%"class.icu_77::UnicodeString") align 8 %0, ptr noundef nonnull readonly align 8 captures(none) dereferenceable(24) %1, ptr noundef nonnull align 4 dereferenceable(4) %2) local_unnamed_addr #1 align 2 personality ptr @__gxx_personality_v0 {
  %4 = alloca i32, align 4
  %5 = alloca %"class.icu_77::ConstChar16Ptr", align 8
  call void @llvm.lifetime.start.p0(i64 4, ptr nonnull %4) #8
  store i32 0, ptr %4, align 4, !tbaa !20
  %6 = getelementptr inbounds nuw i8, ptr %1, i64 8
  %7 = load ptr, ptr %6, align 8, !tbaa !17
  %8 = call ptr @ures_getNextString_77(ptr noundef %7, ptr noundef nonnull %4, ptr noundef null, ptr noundef nonnull %2)
  store ptr %8, ptr %5, align 8, !tbaa !21
  %9 = load i32, ptr %4, align 4, !tbaa !20
  invoke void @_ZN6icu_7713UnicodeStringC1EaNS_14ConstChar16PtrEi(ptr noundef nonnull align 8 dereferenceable(64) %0, i8 noundef signext 1, ptr noundef nonnull %5, i32 noundef %9)
          to label %10 unwind label %12

10:                                               ; preds = %3
  %11 = load ptr, ptr %5, align 8, !tbaa !21
  call void asm sideeffect "", "rm,~{memory},~{dirflag},~{fpsr},~{flags}"(ptr %11) #8, !srcloc !24
  call void @llvm.lifetime.end.p0(i64 4, ptr nonnull %4) #8
  ret void

12:                                               ; preds = %3
  %13 = landingpad { ptr, i32 }
          cleanup
  %14 = load ptr, ptr %5, align 8, !tbaa !21
  call void asm sideeffect "", "rm,~{memory},~{dirflag},~{fpsr},~{flags}"(ptr %14) #8, !srcloc !24
  call void @llvm.lifetime.end.p0(i64 4, ptr nonnull %4) #8
  resume { ptr, i32 } %13
}